(dp0
V3gbu83
p1
Vhttps://soundcloud.com/octobersveryown/drake-back-to-back-freestyle
p2
sV3gbwpm
p3
Vhttps://soundcloud.com/djfunkflexapp/meek-mill-feat-quentin-miller-wanna-know-prod-by-jahlil-beats-swizz-beatz
p4
s.